target datalayout = "e-m:e-p270:32:32-p271:32:32-p272:64:64-i64:64-i128:128-f80:128-n8:16:32:64-S128"
target triple = "x86_64-pc-linux-gnu"

%"class.std::_Function_base" = type { %"union.std::_Any_data", ptr }
%"union.std::_Any_data" = type { %"union.std::_Nocopy_types" }
%"union.std::_Nocopy_types" = type { { i64, i64 } }
%"class.std::shared_ptr.79" = type { %"class.std::__shared_ptr.80" }
%"class.std::__shared_ptr.80" = type { ptr, %"class.std::__shared_count" }
%"class.std::__shared_count" = type { ptr }
%"class.std::function" = type { %"class.std::_Function_base", ptr }
%class.anon.246 = type { ptr, ptr, ptr, ptr, ptr }

; Function Attrs: mustprogress nounwind uwtable
define linkonce_odr noundef ptr @_ZNSt9_Any_data9_M_accessEv(ptr noundef nonnull align 8 dereferenceable(16) %0) #2 comdat align 2 {
  %2 = alloca ptr, align 8
  store ptr %0, ptr %2, align 8
  %3 = load ptr, ptr %2, align 8
  %4 = getelementptr inbounds [16 x i8], ptr %3, i64 0, i64 0
  ret ptr %4
}

; Function Attrs: mustprogress nounwind uwtable
define internal noundef nonnull align 8 dereferenceable(8) ptr @"_ZNSt9_Any_data9_M_accessIPZN3nix6Worker23makeBasicDerivationGoalERKNS1_9StorePathERKNS1_15BasicDerivationERKNS1_11OutputsSpecENS1_9BuildModeEE3$_0EERT_v"(ptr noundef nonnull align 8 dereferenceable(16) %0) #2 align 2 {
  %2 = alloca ptr, align 8
  store ptr %0, ptr %2, align 8
  %3 = load ptr, ptr %2, align 8
  %4 = call noundef ptr @_ZNSt9_Any_data9_M_accessEv(ptr noundef nonnull align 8 dereferenceable(16) %3) #1
  ret ptr %4
}

; Function Attrs: mustprogress uwtable
define internal void @"_ZNSt14_Function_base13_Base_managerIZN3nix6Worker23makeBasicDerivationGoalERKNS1_9StorePathERKNS1_15BasicDerivationERKNS1_11OutputsSpecENS1_9BuildModeEE3$_0E9_M_createISD_EEvRSt9_Any_dataOT_St17integral_constantIbLb0EE"(ptr noundef nonnull align 8 dereferenceable(16) %0, ptr noundef nonnull align 8 dereferenceable(40) %1) #5 align 2 {
  %3 = alloca ptr, align 8
  %4 = alloca ptr, align 8
  store ptr %0, ptr %3, align 8
  store ptr %1, ptr %4, align 8
  %5 = call noalias noundef nonnull ptr @_Znwm(i64 noundef 40) #24
  %6 = load ptr, ptr %4, align 8
  call void @llvm.memcpy.p0.p0.i64(ptr align 16 %5, ptr align 8 %6, i64 40, i1 false)
  %7 = load ptr, ptr %3, align 8
  %8 = call noundef nonnull align 8 dereferenceable(8) ptr @"_ZNSt9_Any_data9_M_accessIPZN3nix6Worker23makeBasicDerivationGoalERKNS1_9StorePathERKNS1_15BasicDerivationERKNS1_11OutputsSpecENS1_9BuildModeEE3$_0EERT_v"(ptr noundef nonnull align 8 dereferenceable(16) %7) #1
  store ptr %5, ptr %8, align 8
  ret void
}

; Function Attrs: mustprogress nounwind uwtable
define linkonce_odr void @_ZNSt14_Function_baseD2Ev(ptr noundef nonnull align 8 dereferenceable(24) %0) unnamed_addr #2 comdat align 2 personality ptr @__gxx_personality_v0 {
  %2 = alloca ptr, align 8
  store ptr %0, ptr %2, align 8
  %3 = load ptr, ptr %2, align 8
  %4 = getelementptr inbounds %"class.std::_Function_base", ptr %3, i32 0, i32 1
  %5 = load ptr, ptr %4, align 8
  %6 = icmp ne ptr %5, null
  br i1 %6, label %7, label %14

7:                                                ; preds = %1
  %8 = getelementptr inbounds %"class.std::_Function_base", ptr %3, i32 0, i32 1
  %9 = load ptr, ptr %8, align 8
  %10 = getelementptr inbounds %"class.std::_Function_base", ptr %3, i32 0, i32 0
  %11 = getelementptr inbounds %"class.std::_Function_base", ptr %3, i32 0, i32 0
  %12 = invoke noundef zeroext i1 %9(ptr noundef nonnull align 8 dereferenceable(16) %10, ptr noundef nonnull align 8 dereferenceable(16) %11, i32 noundef 3)
          to label %13 unwind label %15

13:                                               ; preds = %7
  br label %14

14:                                               ; preds = %13, %1
  ret void

15:                                               ; preds = %7
  %16 = landingpad { ptr, i32 }
          catch ptr null
  %17 = extractvalue { ptr, i32 } %16, 0
  call void @__clang_call_terminate(ptr %17) #22
  unreachable
}

; Function Attrs: mustprogress uwtable
define internal void @"_ZNSt14_Function_base13_Base_managerIZN3nix6Worker23makeBasicDerivationGoalERKNS1_9StorePathERKNS1_15BasicDerivationERKNS1_11OutputsSpecENS1_9BuildModeEE3$_0E15_M_init_functorISD_EEvRSt9_Any_dataOT_"(ptr noundef nonnull align 8 dereferenceable(16) %0, ptr noundef nonnull align 8 dereferenceable(40) %1) #5 align 2 {
  %3 = alloca ptr, align 8
  %4 = alloca ptr, align 8
  store ptr %0, ptr %3, align 8
  store ptr %1, ptr %4, align 8
  %5 = load ptr, ptr %3, align 8
  %6 = load ptr, ptr %4, align 8
  call void @"_ZNSt14_Function_base13_Base_managerIZN3nix6Worker23makeBasicDerivationGoalERKNS1_9StorePathERKNS1_15BasicDerivationERKNS1_11OutputsSpecENS1_9BuildModeEE3$_0E9_M_createISD_EEvRSt9_Any_dataOT_St17integral_constantIbLb0EE"(ptr noundef nonnull align 8 dereferenceable(16) %5, ptr noundef nonnull align 8 dereferenceable(40) %6)
  ret void
}

; Function Attrs: mustprogress nounwind uwtable
define internal noundef zeroext i1 @"_ZNSt14_Function_base13_Base_managerIZN3nix6Worker23makeBasicDerivationGoalERKNS1_9StorePathERKNS1_15BasicDerivationERKNS1_11OutputsSpecENS1_9BuildModeEE3$_0E21_M_not_empty_functionISD_EEbRKT_"(ptr noundef nonnull align 8 dereferenceable(40) %0) #2 align 2 {
  %2 = alloca ptr, align 8
  store ptr %0, ptr %2, align 8
  ret i1 true
}

; Function Attrs: mustprogress nounwind uwtable
define linkonce_odr void @_ZNSt14_Function_baseC2Ev(ptr noundef nonnull align 8 dereferenceable(24) %0) unnamed_addr #2 comdat align 2 {
  %2 = alloca ptr, align 8
  store ptr %0, ptr %2, align 8
  %3 = load ptr, ptr %2, align 8
  %4 = getelementptr inbounds %"class.std::_Function_base", ptr %3, i32 0, i32 0
  store ptr null, ptr %4, align 8
  %5 = getelementptr inbounds %"class.std::_Function_base", ptr %3, i32 0, i32 1
  store ptr null, ptr %5, align 8
  ret void
}

; Function Attrs: mustprogress nounwind uwtable
define linkonce_odr void @_ZNSt8functionIFSt10shared_ptrIN3nix14DerivationGoalEEvEED2Ev(ptr noundef nonnull align 8 dereferenceable(32) %0) unnamed_addr #2 comdat align 2 {
  %2 = alloca ptr, align 8
  store ptr %0, ptr %2, align 8
  %3 = load ptr, ptr %2, align 8
  call void @_ZNSt14_Function_baseD2Ev(ptr noundef nonnull align 8 dereferenceable(24) %3) #1
  ret void
}

; Function Attrs: mustprogress uwtable
define internal void @"_ZNSt8functionIFSt10shared_ptrIN3nix14DerivationGoalEEvEEC2IZNS1_6Worker23makeBasicDerivationGoalERKNS1_9StorePathERKNS1_15BasicDerivationERKNS1_11OutputsSpecENS1_9BuildModeEE3$_0vEEOT_"(ptr noundef nonnull align 8 dereferenceable(32) %0, ptr noundef nonnull align 8 dereferenceable(40) %1) unnamed_addr #5 align 2 personality ptr @__gxx_personality_v0 {
  %3 = alloca ptr, align 8
  %4 = alloca ptr, align 8
  %5 = alloca ptr, align 8
  %6 = alloca i32, align 4
  store ptr %0, ptr %3, align 8
  store ptr %1, ptr %4, align 8
  %7 = load ptr, ptr %3, align 8
  %8 = getelementptr inbounds i8, ptr %7, i64 0
  call void @llvm.memset.p0.i64(ptr align 8 %8, i8 0, i64 24, i1 false)
  call void @_ZNSt14_Function_baseC2Ev(ptr noundef nonnull align 8 dereferenceable(24) %7) #1
  %9 = getelementptr inbounds %"class.std::function", ptr %7, i32 0, i32 1
  store ptr null, ptr %9, align 8
  %10 = load ptr, ptr %4, align 8
  %11 = call noundef zeroext i1 @"_ZNSt14_Function_base13_Base_managerIZN3nix6Worker23makeBasicDerivationGoalERKNS1_9StorePathERKNS1_15BasicDerivationERKNS1_11OutputsSpecENS1_9BuildModeEE3$_0E21_M_not_empty_functionISD_EEbRKT_"(ptr noundef nonnull align 8 dereferenceable(40) %10) #1
  br i1 %11, label %12, label %22

12:                                               ; preds = %2
  %13 = getelementptr inbounds %"class.std::_Function_base", ptr %7, i32 0, i32 0
  %14 = load ptr, ptr %4, align 8
  invoke void @"_ZNSt14_Function_base13_Base_managerIZN3nix6Worker23makeBasicDerivationGoalERKNS1_9StorePathERKNS1_15BasicDerivationERKNS1_11OutputsSpecENS1_9BuildModeEE3$_0E15_M_init_functorISD_EEvRSt9_Any_dataOT_"(ptr noundef nonnull align 8 dereferenceable(16) %13, ptr noundef nonnull align 8 dereferenceable(40) %14)
          to label %15 unwind label %18

15:                                               ; preds = %12
  %16 = getelementptr inbounds %"class.std::function", ptr %7, i32 0, i32 1
  store ptr @"_ZNSt17_Function_handlerIFSt10shared_ptrIN3nix14DerivationGoalEEvEZNS1_6Worker23makeBasicDerivationGoalERKNS1_9StorePathERKNS1_15BasicDerivationERKNS1_11OutputsSpecENS1_9BuildModeEE3$_0E9_M_invokeERKSt9_Any_data", ptr %16, align 8
  %17 = getelementptr inbounds %"class.std::_Function_base", ptr %7, i32 0, i32 1
  store ptr @"_ZNSt17_Function_handlerIFSt10shared_ptrIN3nix14DerivationGoalEEvEZNS1_6Worker23makeBasicDerivationGoalERKNS1_9StorePathERKNS1_15BasicDerivationERKNS1_11OutputsSpecENS1_9BuildModeEE3$_0E10_M_managerERSt9_Any_dataRKSI_St18_Manager_operation", ptr %17, align 8
  br label %22

18:                                               ; preds = %12
  %19 = landingpad { ptr, i32 }
          cleanup
  %20 = extractvalue { ptr, i32 } %19, 0
  store ptr %20, ptr %5, align 8
  %21 = extractvalue { ptr, i32 } %19, 1
  store i32 %21, ptr %6, align 4
  call void @_ZNSt14_Function_baseD2Ev(ptr noundef nonnull align 8 dereferenceable(24) %7) #1
  br label %23

22:                                               ; preds = %15, %2
  ret void

23:                                               ; preds = %18
  %24 = load ptr, ptr %5, align 8
  %25 = load i32, ptr %6, align 4
  %26 = insertvalue { ptr, i32 } poison, ptr %24, 0
  %27 = insertvalue { ptr, i32 } %26, i32 %25, 1
  resume { ptr, i32 } %27
}

; Function Attrs: mustprogress uwtable
define void @_ZN3nix6Worker23makeBasicDerivationGoalERKNS_9StorePathERKNS_15BasicDerivationERKNS_11OutputsSpecENS_9BuildModeE(ptr dead_on_unwind noalias writable sret(%"class.std::shared_ptr.79") align 8 %0, ptr noundef nonnull align 8 dereferenceable(649) %1, ptr noundef nonnull align 8 dereferenceable(32) %2, ptr noundef nonnull align 8 dereferenceable(272) %3, ptr noundef nonnull align 8 dereferenceable(56) %4, i32 noundef %5) #5 align 2 personality ptr @__gxx_personality_v0 {
  %7 = alloca ptr, align 8
  %8 = alloca ptr, align 8
  %9 = alloca ptr, align 8
  %10 = alloca ptr, align 8
  %11 = alloca ptr, align 8
  %12 = alloca i32, align 4
  %13 = alloca %"class.std::function", align 8
  %14 = alloca %class.anon.246, align 8
  %15 = alloca ptr, align 8
  %16 = alloca i32, align 4
  store ptr %0, ptr %7, align 8
  store ptr %1, ptr %8, align 8
  store ptr %2, ptr %9, align 8
  store ptr %3, ptr %10, align 8
  store ptr %4, ptr %11, align 8
  store i32 %5, ptr %12, align 4
  %17 = load ptr, ptr %8, align 8
  %18 = load ptr, ptr %9, align 8
  %19 = load ptr, ptr %11, align 8
  %20 = getelementptr inbounds %class.anon.246, ptr %14, i32 0, i32 0
  store ptr %17, ptr %20, align 8
  %21 = getelementptr inbounds %class.anon.246, ptr %14, i32 0, i32 1
  %22 = load ptr, ptr %9, align 8
  store ptr %22, ptr %21, align 8
  %23 = getelementptr inbounds %class.anon.246, ptr %14, i32 0, i32 2
  %24 = load ptr, ptr %10, align 8
  store ptr %24, ptr %23, align 8
  %25 = getelementptr inbounds %class.anon.246, ptr %14, i32 0, i32 3
  %26 = load ptr, ptr %11, align 8
  store ptr %26, ptr %25, align 8
  %27 = getelementptr inbounds %class.anon.246, ptr %14, i32 0, i32 4
  store ptr %12, ptr %27, align 8
  call void @"_ZNSt8functionIFSt10shared_ptrIN3nix14DerivationGoalEEvEEC2IZNS1_6Worker23makeBasicDerivationGoalERKNS1_9StorePathERKNS1_15BasicDerivationERKNS1_11OutputsSpecENS1_9BuildModeEE3$_0vEEOT_"(ptr noundef nonnull align 8 dereferenceable(32) %13, ptr noundef nonnull align 8 dereferenceable(40) %14)
  invoke void @_ZN3nix6Worker24makeDerivationGoalCommonERKNS_9StorePathERKNS_11OutputsSpecESt8functionIFSt10shared_ptrINS_14DerivationGoalEEvEE(ptr dead_on_unwind writable sret(%"class.std::shared_ptr.79") align 8 %0, ptr noundef nonnull align 8 dereferenceable(649) %17, ptr noundef nonnull align 8 dereferenceable(32) %18, ptr noundef nonnull align 8 dereferenceable(56) %19, ptr noundef %13)
          to label %28 unwind label %29

28:                                               ; preds = %6
  call void @_ZNSt8functionIFSt10shared_ptrIN3nix14DerivationGoalEEvEED2Ev(ptr noundef nonnull align 8 dereferenceable(32) %13) #1
  ret void

29:                                               ; preds = %6
  %30 = landingpad { ptr, i32 }
          cleanup
  %31 = extractvalue { ptr, i32 } %30, 0
  store ptr %31, ptr %15, align 8
  %32 = extractvalue { ptr, i32 } %30, 1
  store i32 %32, ptr %16, align 4
  call void @_ZNSt8functionIFSt10shared_ptrIN3nix14DerivationGoalEEvEED2Ev(ptr noundef nonnull align 8 dereferenceable(32) %13) #1
  br label %33

33:                                               ; preds = %29
  %34 = load ptr, ptr %15, align 8
  %35 = load i32, ptr %16, align 4
  %36 = insertvalue { ptr, i32 } poison, ptr %34, 0
  %37 = insertvalue { ptr, i32 } %36, i32 %35, 1
  resume { ptr, i32 } %37
}