; Function Attrs: mustprogress uwtable
define void @_ZN3nix6Worker23makeBasicDerivationGoalERKNS_9StorePathERKNS_15BasicDerivationERKNS_11OutputsSpecENS_9BuildModeE(ptr dead_on_unwind noalias writable sret(%"class.std::shared_ptr.79") align 8 %0, ptr noundef nonnull align 8 dereferenceable(649) %1, ptr noundef nonnull align 8 dereferenceable(32) %2, ptr noundef nonnull align 8 dereferenceable(272) %3, ptr noundef nonnull align 8 dereferenceable(56) %4, i32 noundef %5) local_unnamed_addr #5 align 2 personality ptr @__gxx_personality_v0 {
  %7 = alloca i32, align 4
  %8 = alloca %"class.std::function", align 8
  store i32 %5, ptr %7, align 4
  %9 = getelementptr inbounds i8, ptr %8, i64 16
  %10 = getelementptr inbounds i8, ptr %8, i64 24
  %11 = getelementptr inbounds i8, ptr %8, i64 8
  store i64 0, ptr %11, align 8
  %12 = tail call noalias noundef nonnull dereferenceable(40) ptr @_Znwm(i64 noundef 40) #32
  store ptr %1, ptr %12, align 16
  %.sroa.2.0..sroa_idx = getelementptr inbounds i8, ptr %12, i64 8
  store ptr %2, ptr %.sroa.2.0..sroa_idx, align 8
  %.sroa.3.0..sroa_idx = getelementptr inbounds i8, ptr %12, i64 16
  store ptr %3, ptr %.sroa.3.0..sroa_idx, align 16
  %.sroa.4.0..sroa_idx = getelementptr inbounds i8, ptr %12, i64 24
  store ptr %4, ptr %.sroa.4.0..sroa_idx, align 8
  %.sroa.5.0..sroa_idx = getelementptr inbounds i8, ptr %12, i64 32
  store ptr %7, ptr %.sroa.5.0..sroa_idx, align 16
  store ptr %12, ptr %8, align 8
  store ptr @"_ZNSt17_Function_handlerIFSt10shared_ptrIN3nix14DerivationGoalEEvEZNS1_6Worker23makeBasicDerivationGoalERKNS1_9StorePathERKNS1_15BasicDerivationERKNS1_11OutputsSpecENS1_9BuildModeEE3$_0E9_M_invokeERKSt9_Any_data", ptr %10, align 8
  store ptr @"_ZNSt17_Function_handlerIFSt10shared_ptrIN3nix14DerivationGoalEEvEZNS1_6Worker23makeBasicDerivationGoalERKNS1_9StorePathERKNS1_15BasicDerivationERKNS1_11OutputsSpecENS1_9BuildModeEE3$_0E10_M_managerERSt9_Any_dataRKSI_St18_Manager_operation", ptr %9, align 8
  invoke void @_ZN3nix6Worker24makeDerivationGoalCommonERKNS_9StorePathERKNS_11OutputsSpecESt8functionIFSt10shared_ptrINS_14DerivationGoalEEvEE(ptr dead_on_unwind writable sret(%"class.std::shared_ptr.79") align 8 %0, ptr noundef nonnull align 8 dereferenceable(649) %1, ptr noundef nonnull align 8 dereferenceable(32) %2, ptr noundef nonnull align 8 dereferenceable(56) %4, ptr noundef nonnull %8)
          to label %13 unwind label %20

13:                                               ; preds = %6
  %14 = load ptr, ptr %9, align 8
  %.not.i.i = icmp eq ptr %14, null
  br i1 %.not.i.i, label %_ZNSt8functionIFSt10shared_ptrIN3nix14DerivationGoalEEvEED2Ev.exit, label %15

15:                                               ; preds = %13
  %16 = invoke noundef zeroext i1 %14(ptr noundef nonnull align 8 dereferenceable(16) %8, ptr noundef nonnull align 8 dereferenceable(16) %8, i32 noundef 3)
          to label %_ZNSt8functionIFSt10shared_ptrIN3nix14DerivationGoalEEvEED2Ev.exit unwind label %17

17:                                               ; preds = %15
  %18 = landingpad { ptr, i32 }
          catch ptr null
  %19 = extractvalue { ptr, i32 } %18, 0
  call void @__clang_call_terminate(ptr %19) #34
  unreachable

_ZNSt8functionIFSt10shared_ptrIN3nix14DerivationGoalEEvEED2Ev.exit: ; preds = %13, %15
  ret void

20:                                               ; preds = %6
  %21 = landingpad { ptr, i32 }
          cleanup
  %22 = load ptr, ptr %9, align 8
  %.not.i.i7 = icmp eq ptr %22, null
  br i1 %.not.i.i7, label %_ZNSt8functionIFSt10shared_ptrIN3nix14DerivationGoalEEvEED2Ev.exit8, label %23

23:                                               ; preds = %20
  %24 = invoke noundef zeroext i1 %22(ptr noundef nonnull align 8 dereferenceable(16) %8, ptr noundef nonnull align 8 dereferenceable(16) %8, i32 noundef 3)
          to label %_ZNSt8functionIFSt10shared_ptrIN3nix14DerivationGoalEEvEED2Ev.exit8 unwind label %25

25:                                               ; preds = %23
  %26 = landingpad { ptr, i32 }
          catch ptr null
  %27 = extractvalue { ptr, i32 } %26, 0
  call void @__clang_call_terminate(ptr %27) #34
  unreachable

_ZNSt8functionIFSt10shared_ptrIN3nix14DerivationGoalEEvEED2Ev.exit8: ; preds = %20, %23
  resume { ptr, i32 } %21
}